; Function Attrs: nofree nounwind memory(read, inaccessiblemem: write) uwtable
define ptr @zend_get_attribute_str(ptr noundef readonly %0, ptr nocapture noundef readonly %1, i64 noundef %2) local_unnamed_addr #4 {
  %.not.i = icmp eq ptr %0, null
  br i1 %.not.i, label %get_attribute_str.exit, label %4

4:                                                ; preds = %3
  %5 = getelementptr inbounds i8, ptr %0, i64 16
  %6 = load ptr, ptr %5, align 8
  %7 = getelementptr inbounds i8, ptr %0, i64 24
  %8 = load i32, ptr %7, align 8
  %9 = zext i32 %8 to i64
  %10 = getelementptr inbounds %struct._zval_struct, ptr %6, i64 %9
  %11 = getelementptr inbounds i8, ptr %0, i64 8
  %12 = load i32, ptr %11, align 8
  %13 = and i32 %12, 4
  %14 = icmp ne i32 %13, 0
  tail call void @llvm.assume(i1 %14)
  %.not2830.i = icmp eq i32 %8, 0
  br i1 %.not2830.i, label %get_attribute_str.exit, label %.lr.ph.i

.lr.ph.i:                                         ; preds = %4, %.critedge.i
  %.02431.i = phi ptr [ %31, %.critedge.i ], [ %6, %4 ]
  %15 = getelementptr inbounds i8, ptr %.02431.i, i64 8
  %16 = load i8, ptr %15, align 8
  %17 = icmp eq i8 %16, 0
  br i1 %17, label %.critedge.i, label %18

18:                                               ; preds = %.lr.ph.i
  %19 = load ptr, ptr %.02431.i, align 8
  %20 = getelementptr inbounds i8, ptr %19, i64 24
  %21 = load i32, ptr %20, align 8
  %22 = icmp eq i32 %21, 0
  br i1 %22, label %23, label %.critedge.i

23:                                               ; preds = %18
  %24 = getelementptr inbounds i8, ptr %19, i64 8
  %25 = load ptr, ptr %24, align 8
  %26 = getelementptr inbounds i8, ptr %25, i64 16
  %27 = load i64, ptr %26, align 8
  %28 = icmp eq i64 %27, %2
  br i1 %28, label %29, label %.critedge.i

29:                                               ; preds = %23
  %30 = getelementptr inbounds i8, ptr %25, i64 24
  %bcmp.i = tail call i32 @bcmp(ptr nonnull %30, ptr %1, i64 %2)
  %.not29.i = icmp eq i32 %bcmp.i, 0
  br i1 %.not29.i, label %get_attribute_str.exit, label %.critedge.i

.critedge.i:                                      ; preds = %29, %23, %18, %.lr.ph.i
  %31 = getelementptr inbounds i8, ptr %.02431.i, i64 16
  %.not28.i = icmp eq ptr %31, %10
  br i1 %.not28.i, label %get_attribute_str.exit, label %.lr.ph.i

get_attribute_str.exit:                           ; preds = %29, %.critedge.i, %3, %4
  %.0.i = phi ptr [ null, %3 ], [ null, %4 ], [ null, %.critedge.i ], [ %19, %29 ]
  ret ptr %.0.i
}